; Function Attrs: nofree nounwind memory(readwrite, argmem: read) uwtable
define noalias noundef ptr @Abc_CexPermute(ptr noundef readonly captures(none) %0, ptr noundef readonly captures(none) %1) local_unnamed_addr #3 {
  %3 = getelementptr inbounds nuw i8, ptr %0, i64 8
  %4 = load i32, ptr %3, align 4, !tbaa !3
  %5 = getelementptr inbounds nuw i8, ptr %0, i64 12
  %6 = load i32, ptr %5, align 4, !tbaa !8
  %7 = getelementptr inbounds nuw i8, ptr %0, i64 4
  %8 = load i32, ptr %7, align 4, !tbaa !11
  %9 = add nsw i32 %8, 1
  %10 = mul nsw i32 %9, %6
  %11 = add nsw i32 %10, %4
  %12 = ashr i32 %11, 5
  %13 = and i32 %11, 31
  %14 = icmp ne i32 %13, 0
  %15 = zext i1 %14 to i32
  %16 = add nsw i32 %12, %15
  %17 = sext i32 %16 to i64
  %18 = shl nsw i64 %17, 2
  %19 = add nsw i64 %18, 20
  %calloc.i = tail call ptr @calloc(i64 1, i64 %19)
  %20 = getelementptr inbounds nuw i8, ptr %calloc.i, i64 8
  store i32 %4, ptr %20, align 4, !tbaa !3
  %21 = getelementptr inbounds nuw i8, ptr %calloc.i, i64 12
  store i32 %6, ptr %21, align 4, !tbaa !8
  %22 = getelementptr inbounds nuw i8, ptr %calloc.i, i64 16
  store i32 %11, ptr %22, align 4, !tbaa !9
  %23 = load i32, ptr %0, align 4, !tbaa !10
  store i32 %23, ptr %calloc.i, align 4, !tbaa !10
  %24 = getelementptr inbounds nuw i8, ptr %calloc.i, i64 4
  store i32 %8, ptr %24, align 4, !tbaa !11
  %25 = getelementptr inbounds nuw i8, ptr %0, i64 16
  %26 = load i32, ptr %25, align 4, !tbaa !9
  %27 = icmp slt i32 %4, %26
  br i1 %27, label %.lr.ph, label %._crit_edge

.lr.ph:                                           ; preds = %2
  %28 = getelementptr inbounds nuw i8, ptr %0, i64 20
  %29 = getelementptr i8, ptr %1, i64 8
  %30 = getelementptr inbounds nuw i8, ptr %calloc.i, i64 20
  br label %31

31:                                               ; preds = %.lr.ph, %55
  %.024 = phi i32 [ %4, %.lr.ph ], [ %56, %55 ]
  %32 = ashr i32 %.024, 5
  %33 = sext i32 %32 to i64
  %34 = getelementptr inbounds i32, ptr %28, i64 %33
  %35 = load i32, ptr %34, align 4, !tbaa !12
  %36 = and i32 %.024, 31
  %37 = shl nuw i32 1, %36
  %38 = and i32 %35, %37
  %.not = icmp eq i32 %38, 0
  br i1 %.not, label %55, label %39

39:                                               ; preds = %31
  %40 = sub nsw i32 %.024, %4
  %.fr = freeze i32 %40
  %41 = srem i32 %.fr, %6
  %.val = load ptr, ptr %29, align 8, !tbaa !43
  %42 = sext i32 %41 to i64
  %43 = getelementptr inbounds i32, ptr %.val, i64 %42
  %44 = load i32, ptr %43, align 4, !tbaa !12
  %45 = add i32 %.fr, %4
  %46 = sub i32 %45, %41
  %47 = add nsw i32 %46, %44
  %48 = and i32 %47, 31
  %49 = shl nuw i32 1, %48
  %50 = ashr i32 %47, 5
  %51 = sext i32 %50 to i64
  %52 = getelementptr inbounds i32, ptr %30, i64 %51
  %53 = load i32, ptr %52, align 4, !tbaa !12
  %54 = or i32 %49, %53
  store i32 %54, ptr %52, align 4, !tbaa !12
  br label %55

55:                                               ; preds = %31, %39
  %56 = add nsw i32 %.024, 1
  %exitcond.not = icmp eq i32 %56, %26
  br i1 %exitcond.not, label %._crit_edge, label %31, !llvm.loop !46

._crit_edge:                                      ; preds = %55, %2
  ret ptr %calloc.i
}